target datalayout = "e-m:e-p270:32:32-p271:32:32-p272:64:64-i64:64-i128:128-f80:128-n8:16:32:64-S128"
target triple = "x86_64-pc-linux-gnu"

%struct.CVodeMemRec = type { double, ptr, ptr, i32, i32, i32, double, double, ptr, i32, ptr, ptr, i32, ptr, i32, i32, double, double, ptr, i32, i32, i32, ptr, ptr, ptr, i32, i32, ptr, ptr, ptr, i32, double, i32, i32, double, ptr, ptr, i32, ptr, ptr, i32, i32, i32, double, ptr, ptr, [13 x ptr], ptr, ptr, ptr, ptr, ptr, [13 x ptr], ptr, ptr, ptr, ptr, [13 x ptr], ptr, ptr, ptr, ptr, ptr, i32, [13 x ptr], ptr, ptr, ptr, ptr, ptr, i32, double, i32, i32, i32, i32, i32, double, double, double, double, double, double, double, double, [14 x double], [6 x double], [13 x double], double, double, double, double, double, double, double, double, double, double, double, i32, ptr, i32, i64, i32, i32, i32, i32, i32, double, double, double, i64, i64, i64, i64, i64, i64, i64, i64, i64, ptr, i64, i64, ptr, i64, i64, i64, i64, i64, i64, i32, i64, i64, i64, i64, i64, i64, double, double, double, ptr, ptr, ptr, ptr, ptr, i32, i32, i64, double, double, double, i32, double, i32, i32, i32, i32, i32, i32, i32, i32, i32, i32, i32, i32, i32, i32, i32, i32, ptr, ptr, ptr, i32, [6 x [4 x double]], i32, i64, ptr, i32, ptr, ptr, double, double, double, ptr, ptr, ptr, double, double, i32, i32, i64, ptr, i32, i32, ptr, i32 }
%struct.CVSpilsMemRec = type { i32, i32, i32, double, double, double, double, i32, i64, i64, i64, i64, i64, i64, i64, ptr, ptr, ptr, ptr, ptr, ptr, ptr, ptr, ptr, i32, ptr, ptr, i64 }

; Function Attrs: nounwind uwtable
define i32 @CVSpilsDQJtimes(ptr noundef %0, ptr noundef %1, double noundef %2, ptr noundef %3, ptr noundef %4, ptr noundef %5, ptr noundef %6) #0 {
  %8 = alloca i32, align 4
  %9 = alloca ptr, align 8
  %10 = alloca ptr, align 8
  %11 = alloca double, align 8
  %12 = alloca ptr, align 8
  %13 = alloca ptr, align 8
  %14 = alloca ptr, align 8
  %15 = alloca ptr, align 8
  %16 = alloca ptr, align 8
  %17 = alloca ptr, align 8
  %18 = alloca double, align 8
  %19 = alloca double, align 8
  %20 = alloca i32, align 4
  %21 = alloca i32, align 4
  %22 = alloca i32, align 4
  store ptr %0, ptr %9, align 8, !tbaa !48
  store ptr %1, ptr %10, align 8, !tbaa !48
  store double %2, ptr %11, align 8, !tbaa !29
  store ptr %3, ptr %12, align 8, !tbaa !48
  store ptr %4, ptr %13, align 8, !tbaa !48
  store ptr %5, ptr %14, align 8, !tbaa !3
  store ptr %6, ptr %15, align 8, !tbaa !48
  call void @llvm.lifetime.start.p0(i64 8, ptr %16) #5
  call void @llvm.lifetime.start.p0(i64 8, ptr %17) #5
  call void @llvm.lifetime.start.p0(i64 8, ptr %18) #5
  call void @llvm.lifetime.start.p0(i64 8, ptr %19) #5
  call void @llvm.lifetime.start.p0(i64 4, ptr %20) #5
  call void @llvm.lifetime.start.p0(i64 4, ptr %21) #5
  %23 = load ptr, ptr %14, align 8, !tbaa !3
  store ptr %23, ptr %16, align 8, !tbaa !9
  %24 = load ptr, ptr %16, align 8, !tbaa !9
  %25 = getelementptr inbounds nuw %struct.CVodeMemRec, ptr %24, i32 0, i32 144
  %26 = load ptr, ptr %25, align 8, !tbaa !11
  store ptr %26, ptr %17, align 8, !tbaa !22
  %27 = load ptr, ptr %9, align 8, !tbaa !48
  %28 = load ptr, ptr %16, align 8, !tbaa !9
  %29 = getelementptr inbounds nuw %struct.CVodeMemRec, ptr %28, i32 0, i32 47
  %30 = load ptr, ptr %29, align 8, !tbaa !57
  %31 = call double @N_VWrmsNorm(ptr noundef %27, ptr noundef %30)
  %32 = fdiv double 1.000000e+00, %31
  store double %32, ptr %18, align 8, !tbaa !29
  store i32 0, ptr %20, align 4, !tbaa !7
  br label %33

33:                                               ; preds = %65, %7
  %34 = load i32, ptr %20, align 4, !tbaa !7
  %35 = icmp slt i32 %34, 3
  br i1 %35, label %36, label %68

36:                                               ; preds = %33
  %37 = load double, ptr %18, align 8, !tbaa !29
  %38 = load ptr, ptr %9, align 8, !tbaa !48
  %39 = load ptr, ptr %12, align 8, !tbaa !48
  %40 = load ptr, ptr %15, align 8, !tbaa !48
  call void @N_VLinearSum(double noundef %37, ptr noundef %38, double noundef 1.000000e+00, ptr noundef %39, ptr noundef %40)
  %41 = load ptr, ptr %16, align 8, !tbaa !9
  %42 = getelementptr inbounds nuw %struct.CVodeMemRec, ptr %41, i32 0, i32 1
  %43 = load ptr, ptr %42, align 8, !tbaa !58
  %44 = load double, ptr %11, align 8, !tbaa !29
  %45 = load ptr, ptr %15, align 8, !tbaa !48
  %46 = load ptr, ptr %10, align 8, !tbaa !48
  %47 = load ptr, ptr %16, align 8, !tbaa !9
  %48 = getelementptr inbounds nuw %struct.CVodeMemRec, ptr %47, i32 0, i32 2
  %49 = load ptr, ptr %48, align 8, !tbaa !59
  %50 = call i32 %43(double noundef %44, ptr noundef %45, ptr noundef %46, ptr noundef %49)
  store i32 %50, ptr %21, align 4, !tbaa !7
  %51 = load ptr, ptr %17, align 8, !tbaa !22
  %52 = getelementptr inbounds nuw %struct.CVSpilsMemRec, ptr %51, i32 0, i32 14
  %53 = load i64, ptr %52, align 8, !tbaa !44
  %54 = add nsw i64 %53, 1
  store i64 %54, ptr %52, align 8, !tbaa !44
  %55 = load i32, ptr %21, align 4, !tbaa !7
  %56 = icmp eq i32 %55, 0
  br i1 %56, label %57, label %58

57:                                               ; preds = %36
  br label %68

58:                                               ; preds = %36
  %59 = load i32, ptr %21, align 4, !tbaa !7
  %60 = icmp slt i32 %59, 0
  br i1 %60, label %61, label %62

61:                                               ; preds = %58
  store i32 -1, ptr %8, align 4
  store i32 1, ptr %22, align 4
  br label %81

62:                                               ; preds = %58
  %63 = load double, ptr %18, align 8, !tbaa !29
  %64 = fmul double %63, 2.500000e-01
  store double %64, ptr %18, align 8, !tbaa !29
  br label %65

65:                                               ; preds = %62
  %66 = load i32, ptr %20, align 4, !tbaa !7
  %67 = add nsw i32 %66, 1
  store i32 %67, ptr %20, align 4, !tbaa !7
  br label %33, !llvm.loop !60

68:                                               ; preds = %57, %33
  %69 = load i32, ptr %21, align 4, !tbaa !7
  %70 = icmp sgt i32 %69, 0
  br i1 %70, label %71, label %72

71:                                               ; preds = %68
  store i32 1, ptr %8, align 4
  store i32 1, ptr %22, align 4
  br label %81

72:                                               ; preds = %68
  %73 = load double, ptr %18, align 8, !tbaa !29
  %74 = fdiv double 1.000000e+00, %73
  store double %74, ptr %19, align 8, !tbaa !29
  %75 = load double, ptr %19, align 8, !tbaa !29
  %76 = load ptr, ptr %10, align 8, !tbaa !48
  %77 = load double, ptr %19, align 8, !tbaa !29
  %78 = fneg double %77
  %79 = load ptr, ptr %13, align 8, !tbaa !48
  %80 = load ptr, ptr %10, align 8, !tbaa !48
  call void @N_VLinearSum(double noundef %75, ptr noundef %76, double noundef %78, ptr noundef %79, ptr noundef %80)
  store i32 0, ptr %8, align 4
  store i32 1, ptr %22, align 4
  br label %81

81:                                               ; preds = %72, %71, %61
  call void @llvm.lifetime.end.p0(i64 4, ptr %21) #5
  call void @llvm.lifetime.end.p0(i64 4, ptr %20) #5
  call void @llvm.lifetime.end.p0(i64 8, ptr %19) #5
  call void @llvm.lifetime.end.p0(i64 8, ptr %18) #5
  call void @llvm.lifetime.end.p0(i64 8, ptr %17) #5
  call void @llvm.lifetime.end.p0(i64 8, ptr %16) #5
  %82 = load i32, ptr %8, align 4
  ret i32 %82
}