; Function Attrs: nounwind uwtable
define range(i32 -1, 2) i32 @CVSpilsDQJtimes(ptr noundef %0, ptr noundef %1, double noundef %2, ptr noundef %3, ptr noundef %4, ptr noundef readonly captures(none) %5, ptr noundef %6) local_unnamed_addr #0 {
  %8 = getelementptr inbounds nuw i8, ptr %5, i64 1696
  %9 = load ptr, ptr %8, align 8, !tbaa !3
  %10 = getelementptr inbounds nuw i8, ptr %5, i64 424
  %11 = load ptr, ptr %10, align 8, !tbaa !46
  %12 = tail call double @N_VWrmsNorm(ptr noundef %0, ptr noundef %11) #5
  %13 = fdiv double 1.000000e+00, %12
  %14 = getelementptr inbounds nuw i8, ptr %5, i64 8
  %15 = getelementptr inbounds nuw i8, ptr %5, i64 16
  %16 = getelementptr inbounds nuw i8, ptr %9, i64 104
  br label %17

17:                                               ; preds = %7, %26
  %.02634 = phi i32 [ 0, %7 ], [ %28, %26 ]
  %.02833 = phi double [ %13, %7 ], [ %27, %26 ]
  tail call void @N_VLinearSum(double noundef %.02833, ptr noundef %0, double noundef 1.000000e+00, ptr noundef %3, ptr noundef %6) #5
  %18 = load ptr, ptr %14, align 8, !tbaa !47
  %19 = load ptr, ptr %15, align 8, !tbaa !48
  %20 = tail call i32 %18(double noundef %2, ptr noundef %6, ptr noundef %1, ptr noundef %19) #5
  %21 = load i64, ptr %16, align 8, !tbaa !36
  %22 = add nsw i64 %21, 1
  store i64 %22, ptr %16, align 8, !tbaa !36
  %23 = icmp eq i32 %20, 0
  br i1 %23, label %29, label %24

24:                                               ; preds = %17
  %25 = icmp slt i32 %20, 0
  br i1 %25, label %.thread, label %26

26:                                               ; preds = %24
  %27 = fmul double %.02833, 2.500000e-01
  %28 = add nuw nsw i32 %.02634, 1
  %exitcond.not = icmp eq i32 %28, 3
  br i1 %exitcond.not, label %.thread, label %17, !llvm.loop !49

29:                                               ; preds = %17
  %30 = fdiv double 1.000000e+00, %.02833
  %31 = fneg double %30
  tail call void @N_VLinearSum(double noundef %30, ptr noundef %1, double noundef %31, ptr noundef %4, ptr noundef %1) #5
  br label %.thread

.thread:                                          ; preds = %26, %24, %29
  %.027 = phi i32 [ 0, %29 ], [ 1, %26 ], [ -1, %24 ]
  ret i32 %.027
}